; Function Attrs: nounwind uwtable
define range(i32 -1, 1) i32 @H5Lexists_async(ptr noundef %0, ptr noundef %1, i32 noundef %2, i64 noundef %3, ptr noundef %4, ptr noundef %5, i64 noundef %6, i64 noundef %7) local_unnamed_addr #0 {
  %9 = alloca ptr, align 8
  %10 = alloca ptr, align 8
  %11 = alloca %struct.H5CX_node_t, align 8
  call void @llvm.lifetime.start.p0(i64 8, ptr nonnull %9) #7
  store ptr null, ptr %9, align 8, !tbaa !20
  call void @llvm.lifetime.start.p0(i64 8, ptr nonnull %10) #7
  store ptr null, ptr %10, align 8, !tbaa !25
  call void @llvm.lifetime.start.p0(i64 480, ptr nonnull %11) #7
  call void @llvm.memset.p0.i64(ptr noundef nonnull align 8 dereferenceable(480) %11, i8 0, i64 480, i1 false)
  %12 = load i8, ptr @H5_libinit_g, align 1, !tbaa !7, !range !9, !noundef !10
  %13 = trunc nuw i8 %12 to i1
  %14 = load i8, ptr @H5_libterm_g, align 1, !range !9
  %15 = trunc nuw i8 %14 to i1
  %16 = select i1 %13, i1 true, i1 %15
  br i1 %16, label %24, label %17, !prof !11

17:                                               ; preds = %8
  %18 = tail call i32 @H5_init_library() #7
  %19 = icmp slt i32 %18, 0
  br i1 %19, label %20, label %._crit_edge, !prof !12

._crit_edge:                                      ; preds = %17
  %.pre = load i8, ptr @H5_libterm_g, align 1, !range !9
  br label %24

20:                                               ; preds = %17
  %21 = load i64, ptr @H5E_FUNC_g, align 8, !tbaa !3
  %22 = load i64, ptr @H5E_CANTINIT_g, align 8, !tbaa !3
  %23 = tail call i32 (ptr, ptr, i32, i64, i64, ptr, ...) @H5E_printf_stack(ptr noundef nonnull @.str, ptr noundef nonnull @__func__.H5Lexists_async, i32 noundef 1201, i64 noundef %21, i64 noundef %22, ptr noundef nonnull @.str.1) #7
  br label %.thread34

24:                                               ; preds = %._crit_edge, %8
  %25 = phi i8 [ %.pre, %._crit_edge ], [ %14, %8 ]
  %26 = load i8, ptr @H5L_init_g, align 1, !tbaa !7, !range !9, !noundef !10
  %27 = trunc nuw i8 %26 to i1
  %28 = trunc nuw i8 %25 to i1
  %29 = select i1 %27, i1 true, i1 %28
  br i1 %29, label %37, label %30, !prof !11

30:                                               ; preds = %24
  store i8 1, ptr @H5L_init_g, align 1, !tbaa !7
  %31 = tail call i32 @H5L__init_package() #7
  %32 = icmp slt i32 %31, 0
  br i1 %32, label %33, label %37, !prof !13

33:                                               ; preds = %30
  store i8 0, ptr @H5L_init_g, align 1, !tbaa !7
  %34 = load i64, ptr @H5E_FUNC_g, align 8, !tbaa !3
  %35 = load i64, ptr @H5E_CANTINIT_g, align 8, !tbaa !3
  %36 = tail call i32 (ptr, ptr, i32, i64, i64, ptr, ...) @H5E_printf_stack(ptr noundef nonnull @.str, ptr noundef nonnull @__func__.H5Lexists_async, i32 noundef 1201, i64 noundef %34, i64 noundef %35, ptr noundef nonnull @.str.2) #7
  br label %.thread34

37:                                               ; preds = %24, %30
  %38 = call i32 @H5CX_push(ptr noundef nonnull %11) #7
  %39 = icmp slt i32 %38, 0
  br i1 %39, label %40, label %44, !prof !12

40:                                               ; preds = %37
  %41 = load i64, ptr @H5E_FUNC_g, align 8, !tbaa !3
  %42 = load i64, ptr @H5E_CANTSET_g, align 8, !tbaa !3
  %43 = call i32 (ptr, ptr, i32, i64, i64, ptr, ...) @H5E_printf_stack(ptr noundef nonnull @.str, ptr noundef nonnull @__func__.H5Lexists_async, i32 noundef 1201, i64 noundef %41, i64 noundef %42, ptr noundef nonnull @.str.3) #7
  br label %.thread34

44:                                               ; preds = %37
  %45 = call i32 @H5E_clear_stack() #7
  %.not = icmp eq i64 %7, 0
  %spec.select = select i1 %.not, ptr null, ptr %10
  %46 = call fastcc i32 @H5L__exists_api_common(i64 noundef %3, ptr noundef %4, ptr noundef %5, i64 noundef %6, ptr noundef %spec.select, ptr noundef nonnull %9)
  %47 = icmp slt i32 %46, 0
  br i1 %47, label %48, label %52, !prof !19

48:                                               ; preds = %44
  %49 = load i64, ptr @H5E_LINK_g, align 8, !tbaa !3
  %50 = load i64, ptr @H5E_CANTGET_g, align 8, !tbaa !3
  %51 = call i32 (ptr, ptr, i32, i64, i64, ptr, ...) @H5E_printf_stack(ptr noundef nonnull @.str, ptr noundef nonnull @__func__.H5Lexists_async, i32 noundef 1209, i64 noundef %49, i64 noundef %50, ptr noundef nonnull @.str.62) #7
  br label %.thread40

52:                                               ; preds = %44
  %53 = load ptr, ptr %10, align 8, !tbaa !25
  %.not25 = icmp eq ptr %53, null
  br i1 %.not25, label %65, label %54

54:                                               ; preds = %52
  %55 = load ptr, ptr %9, align 8, !tbaa !20
  %56 = call ptr @H5VL_obj_get_connector(ptr noundef %55) #7
  %57 = load ptr, ptr %10, align 8, !tbaa !25
  %58 = call i32 (i64, ptr, ptr, ptr, ptr, ...) @H5ES_insert(i64 noundef %7, ptr noundef %56, ptr noundef %57, ptr noundef nonnull @__func__.H5Lexists_async, ptr noundef nonnull @.str.63, ptr noundef nonnull @.str.19, ptr noundef %0, ptr noundef nonnull @.str.20, ptr noundef %1, ptr noundef nonnull @.str.21, i32 noundef %2, ptr noundef nonnull @.str.49, i64 noundef %3, ptr noundef nonnull @.str.50, ptr noundef %4, ptr noundef nonnull @.str.64, ptr noundef %5, ptr noundef nonnull @.str.26, i64 noundef %6, ptr noundef nonnull @.str.27, i64 noundef %7) #7
  %59 = icmp slt i32 %58, 0
  br i1 %59, label %60, label %65, !prof !19

60:                                               ; preds = %54
  %61 = load i64, ptr @H5E_LINK_g, align 8, !tbaa !3
  %62 = load i64, ptr @H5E_CANTINSERT_g, align 8, !tbaa !3
  %63 = call i32 (ptr, ptr, i32, i64, i64, ptr, ...) @H5E_printf_stack(ptr noundef nonnull @.str, ptr noundef nonnull @__func__.H5Lexists_async, i32 noundef 1217, i64 noundef %61, i64 noundef %62, ptr noundef nonnull @.str.28) #7
  br label %.thread40

.thread40:                                        ; preds = %60, %48
  %64 = call i32 @H5CX_pop(i1 noundef zeroext true) #7
  br label %.thread34

65:                                               ; preds = %52, %54
  %66 = call i32 @H5CX_pop(i1 noundef zeroext true) #7
  br label %68

.thread34:                                        ; preds = %40, %33, %20, %.thread40
  %67 = call i32 @H5E_dump_api_stack() #7
  br label %68

68:                                               ; preds = %65, %.thread34
  %.0232937 = phi i32 [ -1, %.thread34 ], [ 0, %65 ]
  call void @llvm.lifetime.end.p0(i64 480, ptr nonnull %11) #7
  call void @llvm.lifetime.end.p0(i64 8, ptr nonnull %10) #7
  call void @llvm.lifetime.end.p0(i64 8, ptr nonnull %9) #7
  ret i32 %.0232937
}